target datalayout = "e-m:e-p270:32:32-p271:32:32-p272:64:64-i64:64-i128:128-f80:128-n8:16:32:64-S128"
target triple = "x86_64-unknown-linux-gnu"

%struct.ChardevClass = type { %struct.ObjectClass, i8, i8, ptr, ptr, ptr, ptr, ptr, ptr, ptr, ptr, ptr, ptr, ptr, ptr, ptr, ptr, ptr, ptr }
%struct.ObjectClass = type { ptr, ptr, [4 x ptr], [4 x ptr], ptr, ptr }
%struct.ChardevCommon = type { ptr, i8, i8 }
%struct.ChardevBackend = type { i32, %union.anon }
%union.anon = type { %struct.ChardevFileWrapper }
%struct.ChardevFileWrapper = type { ptr }
%struct.ChardevCommonWrapper = type { ptr }

@.str.2 = private unnamed_addr constant [23 x i8] c"../qemu/chardev/char.c\00", align 1
@.str.18 = private unnamed_addr constant [8 x i8] c"backend\00", align 1
@.str.59 = private unnamed_addr constant [8 x i8] c"logfile\00", align 1
@.str.60 = private unnamed_addr constant [10 x i8] c"logappend\00", align 1
@__func__.qemu_chr_parse_opts = private unnamed_addr constant [20 x i8] c"qemu_chr_parse_opts\00", align 1
@.str.61 = private unnamed_addr constant [30 x i8] c"chardev: \22%s\22 missing backend\00", align 1

; Function Attrs: nounwind sspstrong uwtable
define dso_local void @qemu_chr_parse_common(ptr noundef %opts, ptr noundef %backend) #0 {
entry:
  %opts.addr = alloca ptr, align 8
  %backend.addr = alloca ptr, align 8
  %logfile = alloca ptr, align 8
  store ptr %opts, ptr %opts.addr, align 8
  store ptr %backend, ptr %backend.addr, align 8
  %0 = load ptr, ptr %opts.addr, align 8
  %call = call ptr @qemu_opt_get(ptr noundef %0, ptr noundef @.str.59)
  store ptr %call, ptr %logfile, align 8
  %1 = load ptr, ptr %logfile, align 8
  %call1 = call noalias ptr @g_strdup(ptr noundef %1)
  %2 = load ptr, ptr %backend.addr, align 8
  %logfile2 = getelementptr inbounds %struct.ChardevCommon, ptr %2, i32 0, i32 0
  store ptr %call1, ptr %logfile2, align 8
  %3 = load ptr, ptr %backend.addr, align 8
  %has_logappend = getelementptr inbounds %struct.ChardevCommon, ptr %3, i32 0, i32 1
  store i8 1, ptr %has_logappend, align 8
  %4 = load ptr, ptr %opts.addr, align 8
  %call3 = call zeroext i1 @qemu_opt_get_bool(ptr noundef %4, ptr noundef @.str.60, i1 noundef zeroext false)
  %5 = load ptr, ptr %backend.addr, align 8
  %logappend = getelementptr inbounds %struct.ChardevCommon, ptr %5, i32 0, i32 2
  %frombool = zext i1 %call3 to i8
  store i8 %frombool, ptr %logappend, align 1
  ret void
}

; Function Attrs: nounwind sspstrong uwtable
define dso_local ptr @qemu_chr_parse_opts(ptr noundef %opts, ptr noundef %errp) #0 {
entry:
  %retval = alloca ptr, align 8
  %opts.addr = alloca ptr, align 8
  %errp.addr = alloca ptr, align 8
  %local_err = alloca ptr, align 8
  %cc = alloca ptr, align 8
  %backend = alloca ptr, align 8
  %name = alloca ptr, align 8
  %ccom = alloca ptr, align 8
  store ptr %opts, ptr %opts.addr, align 8
  store ptr %errp, ptr %errp.addr, align 8
  store ptr null, ptr %local_err, align 8
  store ptr null, ptr %backend, align 8
  %0 = load ptr, ptr %opts.addr, align 8
  %call = call ptr @qemu_opt_get(ptr noundef %0, ptr noundef @.str.18)
  store ptr %call, ptr %name, align 8
  %1 = load ptr, ptr %name, align 8
  %cmp = icmp eq ptr %1, null
  br i1 %cmp, label %if.then, label %if.end

if.then:                                          ; preds = %entry
  %2 = load ptr, ptr %errp.addr, align 8
  %3 = load ptr, ptr %opts.addr, align 8
  %call1 = call ptr @qemu_opts_id(ptr noundef %3)
  call void (ptr, ptr, i32, ptr, ptr, ...) @error_setg_internal(ptr noundef %2, ptr noundef @.str.2, i32 noundef 578, ptr noundef @__func__.qemu_chr_parse_opts, ptr noundef @.str.61, ptr noundef %call1)
  store ptr null, ptr %retval, align 8
  br label %return

if.end:                                           ; preds = %entry
  %4 = load ptr, ptr %name, align 8
  %5 = load ptr, ptr %errp.addr, align 8
  %call2 = call ptr @char_get_class(ptr noundef %4, ptr noundef %5)
  store ptr %call2, ptr %cc, align 8
  %6 = load ptr, ptr %cc, align 8
  %cmp3 = icmp eq ptr %6, null
  br i1 %cmp3, label %if.then4, label %if.end5

if.then4:                                         ; preds = %if.end
  store ptr null, ptr %retval, align 8
  br label %return

if.end5:                                          ; preds = %if.end
  %call6 = call noalias ptr @g_malloc0_n(i64 noundef 1, i64 noundef 16) #15
  store ptr %call6, ptr %backend, align 8
  %7 = load ptr, ptr %backend, align 8
  %type = getelementptr inbounds %struct.ChardevBackend, ptr %7, i32 0, i32 0
  store i32 7, ptr %type, align 8
  %8 = load ptr, ptr %cc, align 8
  %parse = getelementptr inbounds %struct.ChardevClass, ptr %8, i32 0, i32 3
  %9 = load ptr, ptr %parse, align 8
  %tobool = icmp ne ptr %9, null
  br i1 %tobool, label %if.then7, label %if.else

if.then7:                                         ; preds = %if.end5
  %10 = load ptr, ptr %cc, align 8
  %parse8 = getelementptr inbounds %struct.ChardevClass, ptr %10, i32 0, i32 3
  %11 = load ptr, ptr %parse8, align 8
  %12 = load ptr, ptr %opts.addr, align 8
  %13 = load ptr, ptr %backend, align 8
  call void %11(ptr noundef %12, ptr noundef %13, ptr noundef %local_err)
  %14 = load ptr, ptr %local_err, align 8
  %tobool9 = icmp ne ptr %14, null
  br i1 %tobool9, label %if.then10, label %if.end11

if.then10:                                        ; preds = %if.then7
  %15 = load ptr, ptr %errp.addr, align 8
  %16 = load ptr, ptr %local_err, align 8
  call void @error_propagate(ptr noundef %15, ptr noundef %16)
  %17 = load ptr, ptr %backend, align 8
  call void @qapi_free_ChardevBackend(ptr noundef %17)
  store ptr null, ptr %retval, align 8
  br label %return

if.end11:                                         ; preds = %if.then7
  br label %if.end13

if.else:                                          ; preds = %if.end5
  %call12 = call noalias ptr @g_malloc0_n(i64 noundef 1, i64 noundef 16) #15
  store ptr %call12, ptr %ccom, align 8
  %18 = load ptr, ptr %opts.addr, align 8
  %19 = load ptr, ptr %ccom, align 8
  call void @qemu_chr_parse_common(ptr noundef %18, ptr noundef %19)
  %20 = load ptr, ptr %ccom, align 8
  %21 = load ptr, ptr %backend, align 8
  %u = getelementptr inbounds %struct.ChardevBackend, ptr %21, i32 0, i32 1
  %data = getelementptr inbounds %struct.ChardevCommonWrapper, ptr %u, i32 0, i32 0
  store ptr %20, ptr %data, align 8
  br label %if.end13

if.end13:                                         ; preds = %if.else, %if.end11
  %22 = load ptr, ptr %backend, align 8
  store ptr %22, ptr %retval, align 8
  br label %return

return:                                           ; preds = %if.end13, %if.then10, %if.then4, %if.then
  %23 = load ptr, ptr %retval, align 8
  ret ptr %23
}