; Function Attrs: nounwind sspstrong uwtable
define dso_local noundef ptr @qemu_chr_parse_opts(ptr noundef %opts, ptr noundef %errp) local_unnamed_addr #0 {
entry:
  %local_err = alloca ptr, align 8
  store ptr null, ptr %local_err, align 8
  %call = tail call ptr @qemu_opt_get(ptr noundef %opts, ptr noundef nonnull @.str.18) #13
  %cmp = icmp eq ptr %call, null
  br i1 %cmp, label %if.then, label %if.end

if.then:                                          ; preds = %entry
  %call1 = tail call ptr @qemu_opts_id(ptr noundef %opts) #13
  tail call void (ptr, ptr, i32, ptr, ptr, ...) @error_setg_internal(ptr noundef %errp, ptr noundef nonnull @.str.2, i32 noundef 578, ptr noundef nonnull @__func__.qemu_chr_parse_opts, ptr noundef nonnull @.str.61, ptr noundef %call1) #13
  br label %return

if.end:                                           ; preds = %entry
  %call2 = tail call fastcc ptr @char_get_class(ptr noundef nonnull %call, ptr noundef %errp)
  %cmp3 = icmp eq ptr %call2, null
  br i1 %cmp3, label %return, label %if.end5

if.end5:                                          ; preds = %if.end
  %call6 = tail call noalias dereferenceable_or_null(16) ptr @g_malloc0_n(i64 noundef 1, i64 noundef 16) #17
  store i32 7, ptr %call6, align 8
  %parse = getelementptr inbounds nuw i8, ptr %call2, i64 104
  %0 = load ptr, ptr %parse, align 8
  %tobool.not = icmp eq ptr %0, null
  br i1 %tobool.not, label %if.else, label %if.then7

if.then7:                                         ; preds = %if.end5
  call void %0(ptr noundef %opts, ptr noundef nonnull %call6, ptr noundef nonnull %local_err) #13
  %1 = load ptr, ptr %local_err, align 8
  %tobool9.not = icmp eq ptr %1, null
  br i1 %tobool9.not, label %return, label %if.then10

if.then10:                                        ; preds = %if.then7
  call void @error_propagate(ptr noundef %errp, ptr noundef nonnull %1) #13
  call void @qapi_free_ChardevBackend(ptr noundef nonnull %call6) #13
  br label %return

if.else:                                          ; preds = %if.end5
  %call12 = tail call noalias dereferenceable_or_null(16) ptr @g_malloc0_n(i64 noundef 1, i64 noundef 16) #17
  %call.i = tail call ptr @qemu_opt_get(ptr noundef %opts, ptr noundef nonnull @.str.59) #13
  %call1.i = tail call noalias ptr @g_strdup(ptr noundef %call.i) #13
  store ptr %call1.i, ptr %call12, align 8
  %has_logappend.i = getelementptr inbounds nuw i8, ptr %call12, i64 8
  store i8 1, ptr %has_logappend.i, align 8
  %call3.i = tail call zeroext i1 @qemu_opt_get_bool(ptr noundef %opts, ptr noundef nonnull @.str.60, i1 noundef zeroext false) #13
  %logappend.i = getelementptr inbounds nuw i8, ptr %call12, i64 9
  %frombool.i = zext i1 %call3.i to i8
  store i8 %frombool.i, ptr %logappend.i, align 1
  %u = getelementptr inbounds nuw i8, ptr %call6, i64 8
  store ptr %call12, ptr %u, align 8
  br label %return

return:                                           ; preds = %if.else, %if.then7, %if.end, %if.then10, %if.then
  %retval.0 = phi ptr [ null, %if.then ], [ null, %if.then10 ], [ null, %if.end ], [ %call6, %if.then7 ], [ %call6, %if.else ]
  ret ptr %retval.0
}